; Function Attrs: mustprogress nofree norecurse nosync nounwind willreturn memory(argmem: readwrite) uwtable
define dso_local void @_ZN11btMultiBody16spatialTransformERK11btMatrix3x3RK9btVector3S5_S5_RS3_S6_(ptr nocapture noundef nonnull readonly align 4 dereferenceable(48) %rotation_matrix, ptr nocapture noundef nonnull readonly align 4 dereferenceable(16) %displacement, ptr nocapture noundef nonnull readonly align 4 dereferenceable(16) %top_in, ptr nocapture noundef nonnull readonly align 4 dereferenceable(16) %bottom_in, ptr nocapture noundef nonnull writeonly align 4 dereferenceable(16) %top_out, ptr nocapture noundef nonnull writeonly align 4 dereferenceable(16) %bottom_out) local_unnamed_addr #0 align 2 {
entry:
  %0 = load <4 x float>, ptr %rotation_matrix, align 4
  %1 = shufflevector <4 x float> %0, <4 x float> poison, <2 x i32> <i32 0, i32 poison>
  %2 = load float, ptr %top_in, align 4
  %arrayidx5.i.i = getelementptr inbounds i8, ptr %rotation_matrix, i64 4
  %3 = load <4 x float>, ptr %arrayidx5.i.i, align 4
  %4 = shufflevector <4 x float> %3, <4 x float> poison, <2 x i32> <i32 0, i32 poison>
  %arrayidx7.i.i = getelementptr inbounds i8, ptr %top_in, i64 4
  %5 = load float, ptr %arrayidx7.i.i, align 4
  %arrayidx10.i.i = getelementptr inbounds i8, ptr %rotation_matrix, i64 8
  %6 = load <4 x float>, ptr %arrayidx10.i.i, align 4
  %7 = shufflevector <4 x float> %6, <4 x float> poison, <2 x i32> <i32 0, i32 poison>
  %arrayidx12.i.i = getelementptr inbounds i8, ptr %top_in, i64 8
  %8 = load float, ptr %arrayidx12.i.i, align 4
  %arrayidx.i.i = getelementptr inbounds i8, ptr %rotation_matrix, i64 16
  %9 = load float, ptr %arrayidx.i.i, align 4
  %arrayidx5.i5.i = getelementptr inbounds i8, ptr %rotation_matrix, i64 20
  %10 = load float, ptr %arrayidx5.i5.i, align 4
  %arrayidx10.i8.i = getelementptr inbounds i8, ptr %rotation_matrix, i64 24
  %11 = load float, ptr %arrayidx10.i8.i, align 4
  %12 = insertelement <2 x float> poison, float %5, i64 0
  %13 = shufflevector <2 x float> %12, <2 x float> poison, <2 x i32> zeroinitializer
  %14 = insertelement <2 x float> %4, float %10, i64 1
  %15 = fmul <2 x float> %13, %14
  %16 = insertelement <2 x float> %1, float %9, i64 1
  %17 = insertelement <2 x float> poison, float %2, i64 0
  %18 = shufflevector <2 x float> %17, <2 x float> poison, <2 x i32> zeroinitializer
  %19 = tail call <2 x float> @llvm.fmuladd.v2f32(<2 x float> %16, <2 x float> %18, <2 x float> %15)
  %20 = insertelement <2 x float> %7, float %11, i64 1
  %21 = insertelement <2 x float> poison, float %8, i64 0
  %22 = shufflevector <2 x float> %21, <2 x float> poison, <2 x i32> zeroinitializer
  %23 = tail call <2 x float> @llvm.fmuladd.v2f32(<2 x float> %20, <2 x float> %22, <2 x float> %19)
  %arrayidx.i10.i = getelementptr inbounds i8, ptr %rotation_matrix, i64 32
  %24 = load float, ptr %arrayidx.i10.i, align 4
  %arrayidx5.i11.i = getelementptr inbounds i8, ptr %rotation_matrix, i64 36
  %25 = load float, ptr %arrayidx5.i11.i, align 4
  %mul8.i13.i = fmul float %5, %25
  %26 = tail call float @llvm.fmuladd.f32(float %24, float %2, float %mul8.i13.i)
  %arrayidx10.i14.i = getelementptr inbounds i8, ptr %rotation_matrix, i64 40
  %27 = load float, ptr %arrayidx10.i14.i, align 4
  %28 = tail call noundef float @llvm.fmuladd.f32(float %27, float %8, float %26)
  %retval.sroa.3.12.vec.insert.i = insertelement <2 x float> <float poison, float 0.000000e+00>, float %28, i64 0
  store <2 x float> %23, ptr %top_out, align 4
  %ref.tmp.sroa.2.0..sroa_idx = getelementptr inbounds i8, ptr %top_out, i64 8
  store <2 x float> %retval.sroa.3.12.vec.insert.i, ptr %ref.tmp.sroa.2.0..sroa_idx, align 4
  %arrayidx.i = getelementptr inbounds i8, ptr %displacement, i64 4
  %29 = extractelement <2 x float> %23, i64 1
  %30 = load float, ptr %displacement, align 4
  %31 = extractelement <2 x float> %23, i64 0
  %32 = load <4 x float>, ptr %rotation_matrix, align 4
  %33 = shufflevector <4 x float> %32, <4 x float> poison, <2 x i32> <i32 0, i32 poison>
  %34 = load float, ptr %bottom_in, align 4
  %35 = load <4 x float>, ptr %arrayidx5.i.i, align 4
  %36 = shufflevector <4 x float> %35, <4 x float> poison, <2 x i32> <i32 0, i32 poison>
  %arrayidx7.i.i16 = getelementptr inbounds i8, ptr %bottom_in, i64 4
  %37 = load float, ptr %arrayidx7.i.i16, align 4
  %38 = load <4 x float>, ptr %arrayidx10.i.i, align 4
  %39 = shufflevector <4 x float> %38, <4 x float> poison, <2 x i32> <i32 0, i32 poison>
  %arrayidx12.i.i19 = getelementptr inbounds i8, ptr %bottom_in, i64 8
  %40 = load float, ptr %arrayidx12.i.i19, align 4
  %41 = load float, ptr %arrayidx.i.i, align 4
  %42 = load float, ptr %arrayidx5.i5.i, align 4
  %43 = load float, ptr %arrayidx10.i8.i, align 4
  %44 = load float, ptr %arrayidx.i10.i, align 4
  %45 = load float, ptr %arrayidx5.i11.i, align 4
  %mul8.i13.i26 = fmul float %37, %45
  %46 = tail call float @llvm.fmuladd.f32(float %44, float %34, float %mul8.i13.i26)
  %47 = load float, ptr %arrayidx10.i14.i, align 4
  %48 = tail call noundef float @llvm.fmuladd.f32(float %47, float %40, float %46)
  %49 = load <2 x float>, ptr %arrayidx.i, align 4
  %50 = shufflevector <2 x float> %49, <2 x float> poison, <2 x i32> <i32 1, i32 poison>
  %51 = insertelement <2 x float> %50, float %30, i64 1
  %52 = fneg <2 x float> %51
  %53 = shufflevector <2 x float> %23, <2 x float> poison, <2 x i32> <i32 1, i32 0>
  %54 = insertelement <2 x float> %53, float %28, i64 1
  %55 = fmul <2 x float> %54, %52
  %56 = insertelement <2 x float> %53, float %28, i64 0
  %57 = tail call <2 x float> @llvm.fmuladd.v2f32(<2 x float> %49, <2 x float> %56, <2 x float> %55)
  %58 = extractelement <2 x float> %49, i64 0
  %59 = fneg float %58
  %neg30.i = fmul float %31, %59
  %60 = tail call float @llvm.fmuladd.f32(float %30, float %29, float %neg30.i)
  %61 = insertelement <2 x float> poison, float %37, i64 0
  %62 = shufflevector <2 x float> %61, <2 x float> poison, <2 x i32> zeroinitializer
  %63 = insertelement <2 x float> %36, float %42, i64 1
  %64 = fmul <2 x float> %62, %63
  %65 = insertelement <2 x float> %33, float %41, i64 1
  %66 = insertelement <2 x float> poison, float %34, i64 0
  %67 = shufflevector <2 x float> %66, <2 x float> poison, <2 x i32> zeroinitializer
  %68 = tail call <2 x float> @llvm.fmuladd.v2f32(<2 x float> %65, <2 x float> %67, <2 x float> %64)
  %69 = insertelement <2 x float> %39, float %43, i64 1
  %70 = insertelement <2 x float> poison, float %40, i64 0
  %71 = shufflevector <2 x float> %70, <2 x float> poison, <2 x i32> zeroinitializer
  %72 = tail call <2 x float> @llvm.fmuladd.v2f32(<2 x float> %69, <2 x float> %71, <2 x float> %68)
  %73 = fsub <2 x float> %72, %57
  %add14.i = fsub float %48, %60
  %retval.sroa.3.12.vec.insert.i37 = insertelement <2 x float> <float poison, float 0.000000e+00>, float %add14.i, i64 0
  store <2 x float> %73, ptr %bottom_out, align 4
  %ref.tmp1.sroa.2.0..sroa_idx = getelementptr inbounds i8, ptr %bottom_out, i64 8
  store <2 x float> %retval.sroa.3.12.vec.insert.i37, ptr %ref.tmp1.sroa.2.0..sroa_idx, align 4
  ret void
}